target datalayout = "e-m:e-p270:32:32-p271:32:32-p272:64:64-i64:64-i128:128-f80:128-n8:16:32:64-S128"
target triple = "x86_64-pc-linux-gnu"

%struct.slurm_acct_storage_ops = type { ptr, ptr, ptr, ptr, ptr, ptr, ptr, ptr, ptr, ptr, ptr, ptr, ptr, ptr, ptr, ptr, ptr, ptr, ptr, ptr, ptr, ptr, ptr, ptr, ptr, ptr, ptr, ptr, ptr, ptr, ptr, ptr, ptr, ptr, ptr, ptr, ptr, ptr, ptr, ptr, ptr, ptr, ptr, ptr, ptr, ptr, ptr, ptr, ptr, ptr, ptr, ptr, ptr, ptr, ptr, ptr, ptr, ptr, ptr, ptr, ptr, ptr, ptr, ptr, ptr, ptr, ptr, ptr, ptr, ptr, ptr, ptr, ptr, ptr, ptr, ptr, ptr, ptr, ptr, ptr }

@plugin_inited = internal global i32 0, align 4
@ops = internal global %struct.slurm_acct_storage_ops zeroinitializer, align 8

; Function Attrs: nounwind uwtable
define dso_local ptr @acct_storage_g_add_accounts_cond(ptr noundef %0, i32 noundef %1, ptr noundef %2, ptr noundef %3) #0 {
  %5 = alloca ptr, align 8
  %6 = alloca ptr, align 8
  %7 = alloca i32, align 4
  %8 = alloca ptr, align 8
  %9 = alloca ptr, align 8
  store ptr %0, ptr %6, align 8
  store i32 %1, ptr %7, align 4
  store ptr %2, ptr %8, align 8
  store ptr %3, ptr %9, align 8
  %10 = load i32, ptr @plugin_inited, align 4
  %11 = icmp eq i32 %10, 1
  br i1 %11, label %12, label %13

12:                                               ; preds = %4
  store ptr null, ptr %5, align 8
  br label %20

13:                                               ; preds = %4
  %14 = load ptr, ptr getelementptr inbounds nuw (%struct.slurm_acct_storage_ops, ptr @ops, i32 0, i32 7), align 8
  %15 = load ptr, ptr %6, align 8
  %16 = load i32, ptr %7, align 4
  %17 = load ptr, ptr %8, align 8
  %18 = load ptr, ptr %9, align 8
  %19 = call ptr %14(ptr noundef %15, i32 noundef %16, ptr noundef %17, ptr noundef %18)
  store ptr %19, ptr %5, align 8
  br label %20

20:                                               ; preds = %13, %12
  %21 = load ptr, ptr %5, align 8
  ret ptr %21
}